; Function Attrs: nounwind uwtable
define internal void @PredictorSub9_SSE2(ptr noundef %0, ptr noundef %1, i32 noundef %2, ptr noalias noundef %3) #1 {
  %.not31 = icmp slt i32 %2, 4
  br i1 %.not31, label %._crit_edge, label %.lr.ph.preheader

.lr.ph.preheader:                                 ; preds = %4
  %5 = zext nneg i32 %2 to i64
  br label %.lr.ph

.lr.ph:                                           ; preds = %.lr.ph.preheader, %.lr.ph
  %indvars.iv33 = phi i64 [ 0, %.lr.ph.preheader ], [ %indvars.iv.next34, %.lr.ph ]
  %indvars.iv = phi i64 [ 4, %.lr.ph.preheader ], [ %indvars.iv.next, %.lr.ph ]
  %6 = getelementptr inbounds nuw i32, ptr %1, i64 %indvars.iv33
  %7 = load <2 x i64>, ptr %6, align 1, !tbaa !7
  %8 = or disjoint i64 %indvars.iv33, 1
  %9 = getelementptr inbounds nuw i32, ptr %1, i64 %8
  %10 = load <2 x i64>, ptr %9, align 1, !tbaa !7
  %11 = getelementptr inbounds nuw i32, ptr %0, i64 %indvars.iv33
  %12 = load <16 x i8>, ptr %11, align 1, !tbaa !7
  %13 = bitcast <2 x i64> %7 to <16 x i8>
  %14 = bitcast <2 x i64> %10 to <16 x i8>
  %15 = tail call <16 x i8> @llvm.x86.sse2.pavg.b(<16 x i8> %13, <16 x i8> %14)
  %16 = xor <2 x i64> %10, %7
  %17 = bitcast <2 x i64> %16 to <16 x i8>
  %18 = and <16 x i8> %17, splat (i8 1)
  %.neg = sub <16 x i8> %12, %15
  %19 = add <16 x i8> %.neg, %18
  %20 = getelementptr inbounds nuw i32, ptr %3, i64 %indvars.iv33
  store <16 x i8> %19, ptr %20, align 1, !tbaa !7
  %indvars.iv.next = add nuw nsw i64 %indvars.iv, 4
  %.not = icmp samesign ugt i64 %indvars.iv.next, %5
  %indvars.iv.next34 = add nuw nsw i64 %indvars.iv33, 4
  br i1 %.not, label %._crit_edge.loopexit, label %.lr.ph, !llvm.loop !46

._crit_edge.loopexit:                             ; preds = %.lr.ph
  %21 = trunc nuw nsw i64 %indvars.iv to i32
  br label %._crit_edge

._crit_edge:                                      ; preds = %._crit_edge.loopexit, %4
  %.0.lcssa = phi i32 [ 0, %4 ], [ %21, %._crit_edge.loopexit ]
  %.not24 = icmp eq i32 %.0.lcssa, %2
  br i1 %.not24, label %29, label %22

22:                                               ; preds = %._crit_edge
  %23 = load ptr, ptr getelementptr inbounds nuw (i8, ptr @VP8LPredictorsSub_C, i64 72), align 8, !tbaa !3
  %24 = zext nneg i32 %.0.lcssa to i64
  %25 = getelementptr inbounds nuw i32, ptr %0, i64 %24
  %26 = getelementptr inbounds nuw i32, ptr %1, i64 %24
  %27 = sub nsw i32 %2, %.0.lcssa
  %28 = getelementptr inbounds nuw i32, ptr %3, i64 %24
  tail call void %23(ptr noundef %25, ptr noundef %26, i32 noundef %27, ptr noundef %28) #8
  br label %29

29:                                               ; preds = %22, %._crit_edge
  ret void
}